target datalayout = "e-m:e-p270:32:32-p271:32:32-p272:64:64-i64:64-i128:128-f80:128-n8:16:32:64-S128"
target triple = "x86_64-pc-linux-gnu"

@__const._blend_Lab_scale.scale = private unnamed_addr constant [4 x float] [float 0x3F847AE140000000, float 7.812500e-03, float 7.812500e-03, float 1.000000e+00], align 16
@__const._blend_Lab_rescale.scale = private unnamed_addr constant [4 x float] [float 1.000000e+02, float 1.280000e+02, float 1.280000e+02, float 1.000000e+00], align 16

; Function Attrs: inlinehint nounwind uwtable
define internal void @_blend_Lab_rescale(ptr noundef %0, ptr noundef %1) #2 {
  %3 = alloca ptr, align 8
  %4 = alloca ptr, align 8
  %5 = alloca [4 x float], align 16
  %6 = alloca i64, align 8
  store ptr %0, ptr %3, align 8, !tbaa !11
  store ptr %1, ptr %4, align 8, !tbaa !11
  call void @llvm.lifetime.start.p0(i64 16, ptr %5) #8
  call void @llvm.memcpy.p0.p0.i64(ptr align 16 %5, ptr align 16 @__const._blend_Lab_rescale.scale, i64 16, i1 false)
  call void @llvm.lifetime.start.p0(i64 8, ptr %6) #8
  store i64 0, ptr %6, align 8, !tbaa !43
  br label %7

7:                                                ; preds = %23, %2
  %8 = load i64, ptr %6, align 8, !tbaa !43
  %9 = icmp ult i64 %8, 4
  br i1 %9, label %11, label %10

10:                                               ; preds = %7
  call void @llvm.lifetime.end.p0(i64 8, ptr %6) #8
  br label %26

11:                                               ; preds = %7
  %12 = load ptr, ptr %3, align 8, !tbaa !11
  %13 = load i64, ptr %6, align 8, !tbaa !43
  %14 = getelementptr inbounds nuw float, ptr %12, i64 %13
  %15 = load float, ptr %14, align 4, !tbaa !45
  %16 = load i64, ptr %6, align 8, !tbaa !43
  %17 = getelementptr inbounds nuw [4 x float], ptr %5, i64 0, i64 %16
  %18 = load float, ptr %17, align 4, !tbaa !45
  %19 = fmul reassoc nsz arcp contract afn float %15, %18
  %20 = load ptr, ptr %4, align 8, !tbaa !11
  %21 = load i64, ptr %6, align 8, !tbaa !43
  %22 = getelementptr inbounds nuw float, ptr %20, i64 %21
  store float %19, ptr %22, align 4, !tbaa !45
  br label %23

23:                                               ; preds = %11
  %24 = load i64, ptr %6, align 8, !tbaa !43
  %25 = add i64 %24, 1
  store i64 %25, ptr %6, align 8, !tbaa !43
  br label %7

26:                                               ; preds = %10
  call void @llvm.lifetime.end.p0(i64 16, ptr %5) #8
  ret void
}

; Function Attrs: inlinehint nounwind uwtable
define internal void @_blend_Lab_scale(ptr noundef %0, ptr noundef %1) #2 {
  %3 = alloca ptr, align 8
  %4 = alloca ptr, align 8
  %5 = alloca [4 x float], align 16
  %6 = alloca i64, align 8
  store ptr %0, ptr %3, align 8, !tbaa !11
  store ptr %1, ptr %4, align 8, !tbaa !11
  call void @llvm.lifetime.start.p0(i64 16, ptr %5) #8
  call void @llvm.memcpy.p0.p0.i64(ptr align 16 %5, ptr align 16 @__const._blend_Lab_scale.scale, i64 16, i1 false)
  call void @llvm.lifetime.start.p0(i64 8, ptr %6) #8
  store i64 0, ptr %6, align 8, !tbaa !43
  br label %7

7:                                                ; preds = %23, %2
  %8 = load i64, ptr %6, align 8, !tbaa !43
  %9 = icmp ult i64 %8, 4
  br i1 %9, label %11, label %10

10:                                               ; preds = %7
  call void @llvm.lifetime.end.p0(i64 8, ptr %6) #8
  br label %26

11:                                               ; preds = %7
  %12 = load ptr, ptr %3, align 8, !tbaa !11
  %13 = load i64, ptr %6, align 8, !tbaa !43
  %14 = getelementptr inbounds nuw float, ptr %12, i64 %13
  %15 = load float, ptr %14, align 4, !tbaa !45
  %16 = load i64, ptr %6, align 8, !tbaa !43
  %17 = getelementptr inbounds nuw [4 x float], ptr %5, i64 0, i64 %16
  %18 = load float, ptr %17, align 4, !tbaa !45
  %19 = fmul reassoc nsz arcp contract afn float %15, %18
  %20 = load ptr, ptr %4, align 8, !tbaa !11
  %21 = load i64, ptr %6, align 8, !tbaa !43
  %22 = getelementptr inbounds nuw float, ptr %20, i64 %21
  store float %19, ptr %22, align 4, !tbaa !45
  br label %23

23:                                               ; preds = %11
  %24 = load i64, ptr %6, align 8, !tbaa !43
  %25 = add i64 %24, 1
  store i64 %25, ptr %6, align 8, !tbaa !43
  br label %7

26:                                               ; preds = %10
  call void @llvm.lifetime.end.p0(i64 16, ptr %5) #8
  ret void
}

; Function Attrs: nounwind uwtable
define internal void @_blend_Lab_a(ptr noundef %0, ptr noundef %1, ptr noundef %2, ptr noalias noundef %3, i64 noundef %4, ptr noundef %5, ptr noundef %6) #0 {
  %8 = alloca ptr, align 8
  %9 = alloca ptr, align 8
  %10 = alloca ptr, align 8
  %11 = alloca ptr, align 8
  %12 = alloca i64, align 8
  %13 = alloca ptr, align 8
  %14 = alloca ptr, align 8
  %15 = alloca i64, align 8
  %16 = alloca i64, align 8
  %17 = alloca float, align 4
  %18 = alloca [4 x float], align 16
  %19 = alloca [4 x float], align 16
  store ptr %0, ptr %8, align 8, !tbaa !11
  store ptr %1, ptr %9, align 8, !tbaa !11
  store ptr %2, ptr %10, align 8, !tbaa !11
  store ptr %3, ptr %11, align 8, !tbaa !11
  store i64 %4, ptr %12, align 8, !tbaa !43
  store ptr %5, ptr %13, align 8, !tbaa !11
  store ptr %6, ptr %14, align 8, !tbaa !11
  call void @llvm.lifetime.start.p0(i64 8, ptr %15) #8
  store i64 0, ptr %15, align 8, !tbaa !43
  call void @llvm.lifetime.start.p0(i64 8, ptr %16) #8
  store i64 0, ptr %16, align 8, !tbaa !43
  br label %20

20:                                               ; preds = %64, %7
  %21 = load i64, ptr %15, align 8, !tbaa !43
  %22 = load i64, ptr %12, align 8, !tbaa !43
  %23 = icmp ult i64 %21, %22
  br i1 %23, label %25, label %24

24:                                               ; preds = %20
  call void @llvm.lifetime.end.p0(i64 8, ptr %16) #8
  call void @llvm.lifetime.end.p0(i64 8, ptr %15) #8
  br label %69

25:                                               ; preds = %20
  call void @llvm.lifetime.start.p0(i64 4, ptr %17) #8
  %26 = load ptr, ptr %11, align 8, !tbaa !11
  %27 = load i64, ptr %15, align 8, !tbaa !43
  %28 = getelementptr inbounds nuw float, ptr %26, i64 %27
  %29 = load float, ptr %28, align 4, !tbaa !45
  store float %29, ptr %17, align 4, !tbaa !45
  call void @llvm.lifetime.start.p0(i64 16, ptr %18) #8
  call void @llvm.lifetime.start.p0(i64 16, ptr %19) #8
  %30 = load ptr, ptr %8, align 8, !tbaa !11
  %31 = load i64, ptr %16, align 8, !tbaa !43
  %32 = getelementptr inbounds nuw float, ptr %30, i64 %31
  %33 = getelementptr inbounds [4 x float], ptr %18, i64 0, i64 0
  call void @_blend_Lab_scale(ptr noundef %32, ptr noundef %33)
  %34 = load ptr, ptr %9, align 8, !tbaa !11
  %35 = load i64, ptr %16, align 8, !tbaa !43
  %36 = getelementptr inbounds nuw float, ptr %34, i64 %35
  %37 = getelementptr inbounds [4 x float], ptr %19, i64 0, i64 0
  call void @_blend_Lab_scale(ptr noundef %36, ptr noundef %37)
  %38 = getelementptr inbounds [4 x float], ptr %18, i64 0, i64 0
  %39 = load float, ptr %38, align 16, !tbaa !45
  %40 = getelementptr inbounds [4 x float], ptr %19, i64 0, i64 0
  store float %39, ptr %40, align 16, !tbaa !45
  %41 = getelementptr inbounds [4 x float], ptr %18, i64 0, i64 1
  %42 = load float, ptr %41, align 4, !tbaa !45
  %43 = load float, ptr %17, align 4, !tbaa !45
  %44 = fsub reassoc nsz arcp contract afn float 1.000000e+00, %43
  %45 = fmul reassoc nsz arcp contract afn float %42, %44
  %46 = getelementptr inbounds [4 x float], ptr %19, i64 0, i64 1
  %47 = load float, ptr %46, align 4, !tbaa !45
  %48 = load float, ptr %17, align 4, !tbaa !45
  %49 = fmul reassoc nsz arcp contract afn float %47, %48
  %50 = fadd reassoc nsz arcp contract afn float %45, %49
  %51 = getelementptr inbounds [4 x float], ptr %19, i64 0, i64 1
  store float %50, ptr %51, align 4, !tbaa !45
  %52 = getelementptr inbounds [4 x float], ptr %18, i64 0, i64 2
  %53 = load float, ptr %52, align 8, !tbaa !45
  %54 = getelementptr inbounds [4 x float], ptr %19, i64 0, i64 2
  store float %53, ptr %54, align 8, !tbaa !45
  %55 = getelementptr inbounds [4 x float], ptr %19, i64 0, i64 0
  %56 = load ptr, ptr %10, align 8, !tbaa !11
  %57 = load i64, ptr %16, align 8, !tbaa !43
  %58 = getelementptr inbounds nuw float, ptr %56, i64 %57
  call void @_blend_Lab_rescale(ptr noundef %55, ptr noundef %58)
  %59 = load float, ptr %17, align 4, !tbaa !45
  %60 = load ptr, ptr %10, align 8, !tbaa !11
  %61 = load i64, ptr %16, align 8, !tbaa !43
  %62 = add i64 %61, 3
  %63 = getelementptr inbounds nuw float, ptr %60, i64 %62
  store float %59, ptr %63, align 4, !tbaa !45
  call void @llvm.lifetime.end.p0(i64 16, ptr %19) #8
  call void @llvm.lifetime.end.p0(i64 16, ptr %18) #8
  call void @llvm.lifetime.end.p0(i64 4, ptr %17) #8
  br label %64

64:                                               ; preds = %25
  %65 = load i64, ptr %15, align 8, !tbaa !43
  %66 = add i64 %65, 1
  store i64 %66, ptr %15, align 8, !tbaa !43
  %67 = load i64, ptr %16, align 8, !tbaa !43
  %68 = add i64 %67, 4
  store i64 %68, ptr %16, align 8, !tbaa !43
  br label %20

69:                                               ; preds = %24
  ret void
}